target datalayout = "e-m:e-p270:32:32-p271:32:32-p272:64:64-i64:64-i128:128-f80:128-n8:16:32:64-S128"
target triple = "x86_64-pc-linux-gnu"

@.str.2 = private unnamed_addr constant [2 x i8] c"{\00", align 1
@.str.3 = private unnamed_addr constant [5 x i8] c" %2d\00", align 1
@.str.4 = private unnamed_addr constant [4 x i8] c" }\0A\00", align 1
@.str.5 = private unnamed_addr constant [10 x i8] c"Empty set\00", align 1
@.str.6 = private unnamed_addr constant [8 x i8] c"(%d %d)\00", align 1
@.str.7 = private unnamed_addr constant [2 x i8] c"\0A\00", align 1
@__const.Abc_ZddPermCombTest.pPerm = private unnamed_addr constant [10 x i32] [i32 6, i32 5, i32 7, i32 0, i32 3, i32 2, i32 1, i32 8, i32 9, i32 4], align 16

; Function Attrs: nounwind uwtable
define void @Abc_ZddComb2Perm(ptr noundef %0, i32 noundef %1, ptr noundef %2, i32 noundef %3) #0 {
  %5 = alloca ptr, align 8
  %6 = alloca i32, align 4
  %7 = alloca ptr, align 8
  %8 = alloca i32, align 4
  %9 = alloca i32, align 4
  %10 = alloca i32, align 4
  store ptr %0, ptr %5, align 8, !tbaa !8
  store i32 %1, ptr %6, align 4, !tbaa !10
  store ptr %2, ptr %7, align 8, !tbaa !8
  store i32 %3, ptr %8, align 4, !tbaa !10
  call void @llvm.lifetime.start.p0(i64 4, ptr %9) #12
  store i32 0, ptr %9, align 4, !tbaa !10
  br label %11

11:                                               ; preds = %21, %4
  %12 = load i32, ptr %9, align 4, !tbaa !10
  %13 = load i32, ptr %8, align 4, !tbaa !10
  %14 = icmp slt i32 %12, %13
  br i1 %14, label %15, label %24

15:                                               ; preds = %11
  %16 = load i32, ptr %9, align 4, !tbaa !10
  %17 = load ptr, ptr %7, align 8, !tbaa !8
  %18 = load i32, ptr %9, align 4, !tbaa !10
  %19 = sext i32 %18 to i64
  %20 = getelementptr inbounds i32, ptr %17, i64 %19
  store i32 %16, ptr %20, align 4, !tbaa !10
  br label %21

21:                                               ; preds = %15
  %22 = load i32, ptr %9, align 4, !tbaa !10
  %23 = add nsw i32 %22, 1
  store i32 %23, ptr %9, align 4, !tbaa !10
  br label %11, !llvm.loop !64

24:                                               ; preds = %11
  %25 = load i32, ptr %6, align 4, !tbaa !10
  %26 = sub nsw i32 %25, 1
  store i32 %26, ptr %9, align 4, !tbaa !10
  br label %27

27:                                               ; preds = %70, %24
  %28 = load i32, ptr %9, align 4, !tbaa !10
  %29 = icmp sge i32 %28, 0
  br i1 %29, label %30, label %73

30:                                               ; preds = %27
  call void @llvm.lifetime.start.p0(i64 4, ptr %10) #12
  %31 = load ptr, ptr %7, align 8, !tbaa !8
  %32 = load ptr, ptr %5, align 8, !tbaa !8
  %33 = load i32, ptr %9, align 4, !tbaa !10
  %34 = sext i32 %33 to i64
  %35 = getelementptr inbounds i32, ptr %32, i64 %34
  %36 = load i32, ptr %35, align 4, !tbaa !10
  %37 = ashr i32 %36, 16
  %38 = sext i32 %37 to i64
  %39 = getelementptr inbounds i32, ptr %31, i64 %38
  %40 = load i32, ptr %39, align 4, !tbaa !10
  store i32 %40, ptr %10, align 4, !tbaa !10
  %41 = load ptr, ptr %7, align 8, !tbaa !8
  %42 = load ptr, ptr %5, align 8, !tbaa !8
  %43 = load i32, ptr %9, align 4, !tbaa !10
  %44 = sext i32 %43 to i64
  %45 = getelementptr inbounds i32, ptr %42, i64 %44
  %46 = load i32, ptr %45, align 4, !tbaa !10
  %47 = and i32 %46, 65535
  %48 = sext i32 %47 to i64
  %49 = getelementptr inbounds i32, ptr %41, i64 %48
  %50 = load i32, ptr %49, align 4, !tbaa !10
  %51 = load ptr, ptr %7, align 8, !tbaa !8
  %52 = load ptr, ptr %5, align 8, !tbaa !8
  %53 = load i32, ptr %9, align 4, !tbaa !10
  %54 = sext i32 %53 to i64
  %55 = getelementptr inbounds i32, ptr %52, i64 %54
  %56 = load i32, ptr %55, align 4, !tbaa !10
  %57 = ashr i32 %56, 16
  %58 = sext i32 %57 to i64
  %59 = getelementptr inbounds i32, ptr %51, i64 %58
  store i32 %50, ptr %59, align 4, !tbaa !10
  %60 = load i32, ptr %10, align 4, !tbaa !10
  %61 = load ptr, ptr %7, align 8, !tbaa !8
  %62 = load ptr, ptr %5, align 8, !tbaa !8
  %63 = load i32, ptr %9, align 4, !tbaa !10
  %64 = sext i32 %63 to i64
  %65 = getelementptr inbounds i32, ptr %62, i64 %64
  %66 = load i32, ptr %65, align 4, !tbaa !10
  %67 = and i32 %66, 65535
  %68 = sext i32 %67 to i64
  %69 = getelementptr inbounds i32, ptr %61, i64 %68
  store i32 %60, ptr %69, align 4, !tbaa !10
  call void @llvm.lifetime.end.p0(i64 4, ptr %10) #12
  br label %70

70:                                               ; preds = %30
  %71 = load i32, ptr %9, align 4, !tbaa !10
  %72 = add nsw i32 %71, -1
  store i32 %72, ptr %9, align 4, !tbaa !10
  br label %27, !llvm.loop !65

73:                                               ; preds = %27
  call void @llvm.lifetime.end.p0(i64 4, ptr %9) #12
  ret void
}

; Function Attrs: nounwind uwtable
define void @Abc_ZddCombPrint(ptr noundef %0, i32 noundef %1) #0 {
  %3 = alloca ptr, align 8
  %4 = alloca i32, align 4
  %5 = alloca i32, align 4
  store ptr %0, ptr %3, align 8, !tbaa !8
  store i32 %1, ptr %4, align 4, !tbaa !10
  call void @llvm.lifetime.start.p0(i64 4, ptr %5) #12
  %6 = load i32, ptr %4, align 4, !tbaa !10
  %7 = icmp eq i32 %6, 0
  br i1 %7, label %8, label %10

8:                                                ; preds = %2
  %9 = call i32 (ptr, ...) @printf(ptr noundef @.str.5)
  br label %10

10:                                               ; preds = %8, %2
  store i32 0, ptr %5, align 4, !tbaa !10
  br label %11

11:                                               ; preds = %29, %10
  %12 = load i32, ptr %5, align 4, !tbaa !10
  %13 = load i32, ptr %4, align 4, !tbaa !10
  %14 = icmp slt i32 %12, %13
  br i1 %14, label %15, label %32

15:                                               ; preds = %11
  %16 = load ptr, ptr %3, align 8, !tbaa !8
  %17 = load i32, ptr %5, align 4, !tbaa !10
  %18 = sext i32 %17 to i64
  %19 = getelementptr inbounds i32, ptr %16, i64 %18
  %20 = load i32, ptr %19, align 4, !tbaa !10
  %21 = ashr i32 %20, 16
  %22 = load ptr, ptr %3, align 8, !tbaa !8
  %23 = load i32, ptr %5, align 4, !tbaa !10
  %24 = sext i32 %23 to i64
  %25 = getelementptr inbounds i32, ptr %22, i64 %24
  %26 = load i32, ptr %25, align 4, !tbaa !10
  %27 = and i32 %26, 65535
  %28 = call i32 (ptr, ...) @printf(ptr noundef @.str.6, i32 noundef %21, i32 noundef %27)
  br label %29

29:                                               ; preds = %15
  %30 = load i32, ptr %5, align 4, !tbaa !10
  %31 = add nsw i32 %30, 1
  store i32 %31, ptr %5, align 4, !tbaa !10
  br label %11, !llvm.loop !61

32:                                               ; preds = %11
  %33 = call i32 (ptr, ...) @printf(ptr noundef @.str.7)
  call void @llvm.lifetime.end.p0(i64 4, ptr %5) #12
  ret void
}

; Function Attrs: nounwind uwtable
define i32 @Abc_ZddPerm2Comb(ptr noundef %0, i32 noundef %1, ptr noundef %2) #0 {
  %4 = alloca ptr, align 8
  %5 = alloca i32, align 4
  %6 = alloca ptr, align 8
  %7 = alloca i32, align 4
  %8 = alloca i32, align 4
  %9 = alloca i32, align 4
  %10 = alloca i32, align 4
  store ptr %0, ptr %4, align 8, !tbaa !8
  store i32 %1, ptr %5, align 4, !tbaa !10
  store ptr %2, ptr %6, align 8, !tbaa !8
  call void @llvm.lifetime.start.p0(i64 4, ptr %7) #12
  call void @llvm.lifetime.start.p0(i64 4, ptr %8) #12
  call void @llvm.lifetime.start.p0(i64 4, ptr %9) #12
  store i32 0, ptr %9, align 4, !tbaa !10
  store i32 0, ptr %7, align 4, !tbaa !10
  br label %11

11:                                               ; preds = %73, %3
  %12 = load i32, ptr %7, align 4, !tbaa !10
  %13 = load i32, ptr %5, align 4, !tbaa !10
  %14 = icmp slt i32 %12, %13
  br i1 %14, label %15, label %76

15:                                               ; preds = %11
  %16 = load i32, ptr %7, align 4, !tbaa !10
  %17 = load ptr, ptr %4, align 8, !tbaa !8
  %18 = load i32, ptr %7, align 4, !tbaa !10
  %19 = sext i32 %18 to i64
  %20 = getelementptr inbounds i32, ptr %17, i64 %19
  %21 = load i32, ptr %20, align 4, !tbaa !10
  %22 = icmp ne i32 %16, %21
  br i1 %22, label %23, label %72

23:                                               ; preds = %15
  %24 = load i32, ptr %7, align 4, !tbaa !10
  %25 = add nsw i32 %24, 1
  store i32 %25, ptr %8, align 4, !tbaa !10
  br label %26

26:                                               ; preds = %40, %23
  %27 = load i32, ptr %8, align 4, !tbaa !10
  %28 = load i32, ptr %5, align 4, !tbaa !10
  %29 = icmp slt i32 %27, %28
  br i1 %29, label %30, label %43

30:                                               ; preds = %26
  %31 = load i32, ptr %7, align 4, !tbaa !10
  %32 = load ptr, ptr %4, align 8, !tbaa !8
  %33 = load i32, ptr %8, align 4, !tbaa !10
  %34 = sext i32 %33 to i64
  %35 = getelementptr inbounds i32, ptr %32, i64 %34
  %36 = load i32, ptr %35, align 4, !tbaa !10
  %37 = icmp eq i32 %31, %36
  br i1 %37, label %38, label %39

38:                                               ; preds = %30
  br label %43

39:                                               ; preds = %30
  br label %40

40:                                               ; preds = %39
  %41 = load i32, ptr %8, align 4, !tbaa !10
  %42 = add nsw i32 %41, 1
  store i32 %42, ptr %8, align 4, !tbaa !10
  br label %26, !llvm.loop !62

43:                                               ; preds = %38, %26
  %44 = load i32, ptr %7, align 4, !tbaa !10
  %45 = shl i32 %44, 16
  %46 = load i32, ptr %8, align 4, !tbaa !10
  %47 = or i32 %45, %46
  %48 = load ptr, ptr %6, align 8, !tbaa !8
  %49 = load i32, ptr %9, align 4, !tbaa !10
  %50 = add nsw i32 %49, 1
  store i32 %50, ptr %9, align 4, !tbaa !10
  %51 = sext i32 %49 to i64
  %52 = getelementptr inbounds i32, ptr %48, i64 %51
  store i32 %47, ptr %52, align 4, !tbaa !10
  call void @llvm.lifetime.start.p0(i64 4, ptr %10) #12
  %53 = load ptr, ptr %4, align 8, !tbaa !8
  %54 = load i32, ptr %7, align 4, !tbaa !10
  %55 = sext i32 %54 to i64
  %56 = getelementptr inbounds i32, ptr %53, i64 %55
  %57 = load i32, ptr %56, align 4, !tbaa !10
  store i32 %57, ptr %10, align 4, !tbaa !10
  %58 = load ptr, ptr %4, align 8, !tbaa !8
  %59 = load i32, ptr %8, align 4, !tbaa !10
  %60 = sext i32 %59 to i64
  %61 = getelementptr inbounds i32, ptr %58, i64 %60
  %62 = load i32, ptr %61, align 4, !tbaa !10
  %63 = load ptr, ptr %4, align 8, !tbaa !8
  %64 = load i32, ptr %7, align 4, !tbaa !10
  %65 = sext i32 %64 to i64
  %66 = getelementptr inbounds i32, ptr %63, i64 %65
  store i32 %62, ptr %66, align 4, !tbaa !10
  %67 = load i32, ptr %10, align 4, !tbaa !10
  %68 = load ptr, ptr %4, align 8, !tbaa !8
  %69 = load i32, ptr %8, align 4, !tbaa !10
  %70 = sext i32 %69 to i64
  %71 = getelementptr inbounds i32, ptr %68, i64 %70
  store i32 %67, ptr %71, align 4, !tbaa !10
  call void @llvm.lifetime.end.p0(i64 4, ptr %10) #12
  br label %72

72:                                               ; preds = %43, %15
  br label %73

73:                                               ; preds = %72
  %74 = load i32, ptr %7, align 4, !tbaa !10
  %75 = add nsw i32 %74, 1
  store i32 %75, ptr %7, align 4, !tbaa !10
  br label %11, !llvm.loop !63

76:                                               ; preds = %11
  %77 = load i32, ptr %9, align 4, !tbaa !10
  call void @llvm.lifetime.end.p0(i64 4, ptr %9) #12
  call void @llvm.lifetime.end.p0(i64 4, ptr %8) #12
  call void @llvm.lifetime.end.p0(i64 4, ptr %7) #12
  ret i32 %77
}

; Function Attrs: nounwind uwtable
define void @Abc_ZddPermPrint(ptr noundef %0, i32 noundef %1) #0 {
  %3 = alloca ptr, align 8
  %4 = alloca i32, align 4
  %5 = alloca i32, align 4
  store ptr %0, ptr %3, align 8, !tbaa !8
  store i32 %1, ptr %4, align 4, !tbaa !10
  call void @llvm.lifetime.start.p0(i64 4, ptr %5) #12
  %6 = call i32 (ptr, ...) @printf(ptr noundef @.str.2)
  store i32 0, ptr %5, align 4, !tbaa !10
  br label %7

7:                                                ; preds = %18, %2
  %8 = load i32, ptr %5, align 4, !tbaa !10
  %9 = load i32, ptr %4, align 4, !tbaa !10
  %10 = icmp slt i32 %8, %9
  br i1 %10, label %11, label %21

11:                                               ; preds = %7
  %12 = load ptr, ptr %3, align 8, !tbaa !8
  %13 = load i32, ptr %5, align 4, !tbaa !10
  %14 = sext i32 %13 to i64
  %15 = getelementptr inbounds i32, ptr %12, i64 %14
  %16 = load i32, ptr %15, align 4, !tbaa !10
  %17 = call i32 (ptr, ...) @printf(ptr noundef @.str.3, i32 noundef %16)
  br label %18

18:                                               ; preds = %11
  %19 = load i32, ptr %5, align 4, !tbaa !10
  %20 = add nsw i32 %19, 1
  store i32 %20, ptr %5, align 4, !tbaa !10
  br label %7, !llvm.loop !60

21:                                               ; preds = %7
  %22 = call i32 (ptr, ...) @printf(ptr noundef @.str.4)
  call void @llvm.lifetime.end.p0(i64 4, ptr %5) #12
  ret void
}

; Function Attrs: nounwind uwtable
define void @Abc_ZddPermCombTest() #0 {
  %1 = alloca i32, align 4
  %2 = alloca [10 x i32], align 16
  %3 = alloca [10 x i32], align 16
  %4 = alloca i32, align 4
  call void @llvm.lifetime.start.p0(i64 4, ptr %1) #12
  store i32 10, ptr %1, align 4, !tbaa !10
  call void @llvm.lifetime.start.p0(i64 40, ptr %2) #12
  call void @llvm.memcpy.p0.p0.i64(ptr align 16 %2, ptr align 16 @__const.Abc_ZddPermCombTest.pPerm, i64 40, i1 false)
  call void @llvm.lifetime.start.p0(i64 40, ptr %3) #12
  call void @llvm.lifetime.start.p0(i64 4, ptr %4) #12
  %5 = getelementptr inbounds [10 x i32], ptr %2, i64 0, i64 0
  %6 = load i32, ptr %1, align 4, !tbaa !10
  call void @Abc_ZddPermPrint(ptr noundef %5, i32 noundef %6)
  %7 = getelementptr inbounds [10 x i32], ptr %2, i64 0, i64 0
  %8 = load i32, ptr %1, align 4, !tbaa !10
  %9 = getelementptr inbounds [10 x i32], ptr %3, i64 0, i64 0
  %10 = call i32 @Abc_ZddPerm2Comb(ptr noundef %7, i32 noundef %8, ptr noundef %9)
  store i32 %10, ptr %4, align 4, !tbaa !10
  %11 = getelementptr inbounds [10 x i32], ptr %3, i64 0, i64 0
  %12 = load i32, ptr %4, align 4, !tbaa !10
  call void @Abc_ZddCombPrint(ptr noundef %11, i32 noundef %12)
  %13 = getelementptr inbounds [10 x i32], ptr %3, i64 0, i64 0
  %14 = load i32, ptr %4, align 4, !tbaa !10
  %15 = getelementptr inbounds [10 x i32], ptr %2, i64 0, i64 0
  %16 = load i32, ptr %1, align 4, !tbaa !10
  call void @Abc_ZddComb2Perm(ptr noundef %13, i32 noundef %14, ptr noundef %15, i32 noundef %16)
  %17 = getelementptr inbounds [10 x i32], ptr %2, i64 0, i64 0
  %18 = load i32, ptr %1, align 4, !tbaa !10
  call void @Abc_ZddPermPrint(ptr noundef %17, i32 noundef %18)
  store i32 0, ptr %1, align 4, !tbaa !10
  call void @llvm.lifetime.end.p0(i64 4, ptr %4) #12
  call void @llvm.lifetime.end.p0(i64 40, ptr %3) #12
  call void @llvm.lifetime.end.p0(i64 40, ptr %2) #12
  call void @llvm.lifetime.end.p0(i64 4, ptr %1) #12
  ret void
}