; Function Attrs: nofree nounwind uwtable
define void @Abc_ZddPermCombTest() local_unnamed_addr #0 {
  %1 = alloca [10 x i32], align 16
  %2 = alloca [10 x i32], align 16
  call void @llvm.lifetime.start.p0(i64 40, ptr nonnull %1) #23
  call void @llvm.memcpy.p0.p0.i64(ptr noundef nonnull align 16 dereferenceable(40) %1, ptr noundef nonnull align 16 dereferenceable(40) @__const.Abc_ZddPermCombTest.pPerm, i64 40, i1 false)
  call void @llvm.lifetime.start.p0(i64 40, ptr nonnull %2) #23
  %putchar.i = tail call i32 @putchar(i32 123)
  br label %.lr.ph.i

.lr.ph.i:                                         ; preds = %.lr.ph.i, %0
  %indvars.iv.i = phi i64 [ 0, %0 ], [ %indvars.iv.next.i, %.lr.ph.i ]
  %3 = getelementptr inbounds nuw i32, ptr %1, i64 %indvars.iv.i
  %4 = load i32, ptr %3, align 4, !tbaa !3
  %5 = tail call i32 (ptr, ...) @printf(ptr noundef nonnull dereferenceable(1) @.str.3, i32 noundef %4)
  %indvars.iv.next.i = add nuw nsw i64 %indvars.iv.i, 1
  %exitcond.not.i = icmp eq i64 %indvars.iv.next.i, 10
  br i1 %exitcond.not.i, label %Abc_ZddPermPrint.exit, label %.lr.ph.i, !llvm.loop !52

Abc_ZddPermPrint.exit:                            ; preds = %.lr.ph.i
  %puts.i = tail call i32 @puts(ptr nonnull dereferenceable(1) @str)
  br label %.lr.ph.i6

.lr.ph.i6:                                        ; preds = %23, %Abc_ZddPermPrint.exit
  %indvars.iv.i7 = phi i64 [ 0, %Abc_ZddPermPrint.exit ], [ %indvars.iv.next.i9, %23 ]
  %.02629.i = phi i32 [ 0, %Abc_ZddPermPrint.exit ], [ %.1.i, %23 ]
  %6 = getelementptr inbounds nuw i32, ptr %1, i64 %indvars.iv.i7
  %7 = load i32, ptr %6, align 4, !tbaa !3
  %8 = zext i32 %7 to i64
  %.not.i = icmp eq i64 %indvars.iv.i7, %8
  br i1 %.not.i, label %23, label %.preheader.i

.preheader.i:                                     ; preds = %.lr.ph.i6, %9
  %indvars.iv31.i = phi i64 [ %indvars.iv.next32.i, %9 ], [ %indvars.iv.i7, %.lr.ph.i6 ]
  %exitcond.not.i8 = icmp eq i64 %indvars.iv31.i, 9
  br i1 %exitcond.not.i8, label %split.i, label %9

9:                                                ; preds = %.preheader.i
  %indvars.iv.next32.i = add nuw nsw i64 %indvars.iv31.i, 1
  %10 = getelementptr inbounds nuw i32, ptr %1, i64 %indvars.iv.next32.i
  %11 = load i32, ptr %10, align 4, !tbaa !3
  %12 = zext i32 %11 to i64
  %13 = icmp eq i64 %indvars.iv.i7, %12
  br i1 %13, label %._crit_edge37.i, label %.preheader.i, !llvm.loop !54

._crit_edge37.i:                                  ; preds = %9
  %14 = trunc nuw nsw i64 %indvars.iv.next32.i to i32
  %.pre.i = and i64 %indvars.iv.next32.i, 4294967295
  br label %split.i

split.i:                                          ; preds = %.preheader.i, %._crit_edge37.i
  %.pre-phi.i = phi i64 [ %.pre.i, %._crit_edge37.i ], [ 10, %.preheader.i ]
  %.027.lcssa.i = phi i32 [ %14, %._crit_edge37.i ], [ 10, %.preheader.i ]
  %15 = trunc nuw nsw i64 %indvars.iv.i7 to i32
  %16 = shl i32 %15, 16
  %17 = or i32 %.027.lcssa.i, %16
  %18 = add nsw i32 %.02629.i, 1
  %19 = sext i32 %.02629.i to i64
  %20 = getelementptr inbounds i32, ptr %2, i64 %19
  store i32 %17, ptr %20, align 4, !tbaa !3
  %21 = getelementptr inbounds nuw i32, ptr %1, i64 %.pre-phi.i
  %22 = load i32, ptr %21, align 4, !tbaa !3
  store i32 %22, ptr %6, align 4, !tbaa !3
  store i32 %7, ptr %21, align 4, !tbaa !3
  br label %23

23:                                               ; preds = %split.i, %.lr.ph.i6
  %.1.i = phi i32 [ %18, %split.i ], [ %.02629.i, %.lr.ph.i6 ]
  %indvars.iv.next.i9 = add nuw nsw i64 %indvars.iv.i7, 1
  %exitcond36.not.i = icmp eq i64 %indvars.iv.next.i9, 10
  br i1 %exitcond36.not.i, label %Abc_ZddPerm2Comb.exit, label %.lr.ph.i6, !llvm.loop !55

Abc_ZddPerm2Comb.exit:                            ; preds = %23
  %24 = icmp eq i32 %.1.i, 0
  br i1 %24, label %.thread.i, label %26

.thread.i:                                        ; preds = %Abc_ZddPerm2Comb.exit
  %25 = tail call i32 (ptr, ...) @printf(ptr noundef nonnull dereferenceable(1) @.str.5)
  br label %Abc_ZddCombPrint.exit

26:                                               ; preds = %Abc_ZddPerm2Comb.exit
  %27 = icmp sgt i32 %.1.i, 0
  br i1 %27, label %.lr.ph.preheader.i, label %Abc_ZddCombPrint.exit

.lr.ph.preheader.i:                               ; preds = %26
  %wide.trip.count.i = zext nneg i32 %.1.i to i64
  br label %.lr.ph.i11

.lr.ph.i11:                                       ; preds = %.lr.ph.i11, %.lr.ph.preheader.i
  %indvars.iv.i12 = phi i64 [ 0, %.lr.ph.preheader.i ], [ %indvars.iv.next.i13, %.lr.ph.i11 ]
  %28 = getelementptr inbounds nuw i32, ptr %2, i64 %indvars.iv.i12
  %29 = load i32, ptr %28, align 4, !tbaa !3
  %30 = ashr i32 %29, 16
  %31 = and i32 %29, 65535
  %32 = tail call i32 (ptr, ...) @printf(ptr noundef nonnull dereferenceable(1) @.str.6, i32 noundef %30, i32 noundef %31)
  %indvars.iv.next.i13 = add nuw nsw i64 %indvars.iv.i12, 1
  %exitcond.not.i14 = icmp eq i64 %indvars.iv.next.i13, %wide.trip.count.i
  br i1 %exitcond.not.i14, label %Abc_ZddCombPrint.exit, label %.lr.ph.i11, !llvm.loop !53

Abc_ZddCombPrint.exit:                            ; preds = %.lr.ph.i11, %.thread.i, %26
  %putchar.i10 = tail call i32 @putchar(i32 10)
  br label %.lr.ph.i16

.preheader.i20:                                   ; preds = %.lr.ph.i16
  %33 = icmp sgt i32 %.1.i, 0
  br i1 %33, label %.lr.ph23.preheader.i, label %Abc_ZddComb2Perm.exit

.lr.ph23.preheader.i:                             ; preds = %.preheader.i20
  %34 = zext nneg i32 %.1.i to i64
  br label %.lr.ph23.i

.lr.ph.i16:                                       ; preds = %.lr.ph.i16, %Abc_ZddCombPrint.exit
  %indvars.iv.i17 = phi i64 [ 0, %Abc_ZddCombPrint.exit ], [ %indvars.iv.next.i18, %.lr.ph.i16 ]
  %35 = getelementptr inbounds nuw i32, ptr %1, i64 %indvars.iv.i17
  %36 = trunc nuw nsw i64 %indvars.iv.i17 to i32
  store i32 %36, ptr %35, align 4, !tbaa !3
  %indvars.iv.next.i18 = add nuw nsw i64 %indvars.iv.i17, 1
  %exitcond.not.i19 = icmp eq i64 %indvars.iv.next.i18, 10
  br i1 %exitcond.not.i19, label %.preheader.i20, label %.lr.ph.i16, !llvm.loop !56

.lr.ph23.i:                                       ; preds = %.lr.ph23.i, %.lr.ph23.preheader.i
  %indvars.iv25.i = phi i64 [ %34, %.lr.ph23.preheader.i ], [ %indvars.iv.next26.i, %.lr.ph23.i ]
  %indvars.iv.next26.i = add nsw i64 %indvars.iv25.i, -1
  %37 = getelementptr inbounds nuw i32, ptr %2, i64 %indvars.iv.next26.i
  %38 = load i32, ptr %37, align 4, !tbaa !3
  %39 = ashr i32 %38, 16
  %40 = sext i32 %39 to i64
  %41 = getelementptr inbounds i32, ptr %1, i64 %40
  %42 = load i32, ptr %41, align 4, !tbaa !3
  %43 = and i32 %38, 65535
  %44 = zext nneg i32 %43 to i64
  %45 = getelementptr inbounds nuw i32, ptr %1, i64 %44
  %46 = load i32, ptr %45, align 4, !tbaa !3
  store i32 %46, ptr %41, align 4, !tbaa !3
  store i32 %42, ptr %45, align 4, !tbaa !3
  %47 = icmp samesign ugt i64 %indvars.iv25.i, 1
  br i1 %47, label %.lr.ph23.i, label %Abc_ZddComb2Perm.exit, !llvm.loop !57

Abc_ZddComb2Perm.exit:                            ; preds = %.lr.ph23.i, %.preheader.i20
  %putchar.i21 = tail call i32 @putchar(i32 123)
  br label %.lr.ph.i23

.lr.ph.i23:                                       ; preds = %.lr.ph.i23, %Abc_ZddComb2Perm.exit
  %indvars.iv.i24 = phi i64 [ 0, %Abc_ZddComb2Perm.exit ], [ %indvars.iv.next.i25, %.lr.ph.i23 ]
  %48 = getelementptr inbounds nuw i32, ptr %1, i64 %indvars.iv.i24
  %49 = load i32, ptr %48, align 4, !tbaa !3
  %50 = tail call i32 (ptr, ...) @printf(ptr noundef nonnull dereferenceable(1) @.str.3, i32 noundef %49)
  %indvars.iv.next.i25 = add nuw nsw i64 %indvars.iv.i24, 1
  %exitcond.not.i26 = icmp eq i64 %indvars.iv.next.i25, 10
  br i1 %exitcond.not.i26, label %Abc_ZddPermPrint.exit28, label %.lr.ph.i23, !llvm.loop !52

Abc_ZddPermPrint.exit28:                          ; preds = %.lr.ph.i23
  %puts.i27 = tail call i32 @puts(ptr nonnull dereferenceable(1) @str)
  call void @llvm.lifetime.end.p0(i64 40, ptr nonnull %2) #23
  call void @llvm.lifetime.end.p0(i64 40, ptr nonnull %1) #23
  ret void
}